; Function Attrs: mustprogress uwtable
define void @_ZNK6casadi7Horzcat10ad_forwardERKSt6vectorIS1_INS_2MXESaIS2_EESaIS4_EERS6_(ptr nocapture nonnull readnone align 8 %0, ptr nocapture noundef nonnull readonly align 8 dereferenceable(24) %1, ptr nocapture noundef nonnull readonly align 8 dereferenceable(24) %2) unnamed_addr #3 align 2 personality ptr @__gxx_personality_v0 {
  %4 = alloca %"class.casadi::MX", align 8
  %5 = getelementptr inbounds i8, ptr %2, i64 8
  %6 = load ptr, ptr %5, align 8
  %7 = load ptr, ptr %2, align 8
  %8 = ptrtoint ptr %6 to i64
  %9 = ptrtoint ptr %7 to i64
  %10 = sub i64 %8, %9
  %11 = icmp sgt i64 %10, 0
  br i1 %11, label %.lr.ph.preheader, label %._crit_edge

.lr.ph.preheader:                                 ; preds = %3
  %12 = udiv exact i64 %10, 24
  %13 = tail call i64 @llvm.umax.i64(i64 %12, i64 1)
  br label %.lr.ph

.lr.ph:                                           ; preds = %.lr.ph.preheader, %_ZN6casadi2MXaSERKS0_.exit
  %.09 = phi i64 [ %20, %_ZN6casadi2MXaSERKS0_.exit ], [ 0, %.lr.ph.preheader ]
  %14 = load ptr, ptr %1, align 8
  %15 = getelementptr inbounds %"class.std::vector", ptr %14, i64 %.09
  call void @_ZN6casadi2MX7horzcatERKSt6vectorIS0_SaIS0_EE(ptr dead_on_unwind nonnull writable sret(%"class.casadi::MX") align 8 %4, ptr noundef nonnull align 8 dereferenceable(24) %15)
  %16 = load ptr, ptr %2, align 8
  %17 = getelementptr inbounds %"class.std::vector", ptr %16, i64 %.09
  %18 = load ptr, ptr %17, align 8
  %19 = invoke noundef nonnull align 8 dereferenceable(8) ptr @_ZN6casadi12SharedObjectaSERKS0_(ptr noundef nonnull align 8 dereferenceable(8) %18, ptr noundef nonnull align 8 dereferenceable(8) %4)
          to label %_ZN6casadi2MXaSERKS0_.exit unwind label %21

_ZN6casadi2MXaSERKS0_.exit:                       ; preds = %.lr.ph
  call void @_ZN6casadi2MXD1Ev(ptr noundef nonnull align 8 dereferenceable(8) %4) #17
  %20 = add nuw nsw i64 %.09, 1
  %exitcond.not = icmp eq i64 %20, %13
  br i1 %exitcond.not, label %._crit_edge, label %.lr.ph, !llvm.loop !31

21:                                               ; preds = %.lr.ph
  %22 = landingpad { ptr, i32 }
          cleanup
  call void @_ZN6casadi2MXD1Ev(ptr noundef nonnull align 8 dereferenceable(8) %4) #17
  resume { ptr, i32 } %22

._crit_edge:                                      ; preds = %_ZN6casadi2MXaSERKS0_.exit, %3
  ret void
}